; Function Attrs: mustprogress nounwind uwtable
define dso_local void @_ZN6spdlog7details15periodic_workerD2Ev(ptr noundef nonnull align 8 dereferenceable(104) %this) unnamed_addr #2 align 2 personality ptr @__gxx_personality_v0 {
entry:
  %worker_thread_ = getelementptr inbounds i8, ptr %this, i64 8
  %agg.tmp.sroa.0.0.copyload.i = load i64, ptr %worker_thread_, align 8
  %cmp.i.i.not = icmp eq i64 %agg.tmp.sroa.0.0.copyload.i, 0
  br i1 %cmp.i.i.not, label %if.end, label %if.then

if.then:                                          ; preds = %entry
  %mutex_ = getelementptr inbounds i8, ptr %this, i64 16
  %call1.i.i.i = tail call noundef i32 @pthread_mutex_lock(ptr noundef nonnull %mutex_) #18
  %tobool.not.i.i = icmp eq i32 %call1.i.i.i, 0
  br i1 %tobool.not.i.i, label %invoke.cont, label %if.then.i.i

if.then.i.i:                                      ; preds = %if.then
  invoke void @_ZSt20__throw_system_errori(i32 noundef %call1.i.i.i) #19
          to label %.noexc unwind label %terminate.lpad

.noexc:                                           ; preds = %if.then.i.i
  unreachable

invoke.cont:                                      ; preds = %if.then
  store i8 0, ptr %this, align 8
  %call1.i.i.i1 = tail call noundef i32 @pthread_mutex_unlock(ptr noundef nonnull %mutex_) #18
  %cv_ = getelementptr inbounds i8, ptr %this, i64 56
  tail call void @_ZNSt18condition_variable10notify_oneEv(ptr noundef nonnull align 8 dereferenceable(48) %cv_) #18
  invoke void @_ZNSt6thread4joinEv(ptr noundef nonnull align 8 dereferenceable(8) %worker_thread_)
          to label %if.end unwind label %terminate.lpad

if.end:                                           ; preds = %invoke.cont, %entry
  %cv_4 = getelementptr inbounds i8, ptr %this, i64 56
  tail call void @_ZNSt18condition_variableD1Ev(ptr noundef nonnull align 8 dereferenceable(48) %cv_4) #18
  %agg.tmp.sroa.0.0.copyload.i.i = load i64, ptr %worker_thread_, align 8
  %cmp.i.i.not.i = icmp eq i64 %agg.tmp.sroa.0.0.copyload.i.i, 0
  br i1 %cmp.i.i.not.i, label %_ZNSt6threadD2Ev.exit, label %if.then.i

if.then.i:                                        ; preds = %if.end
  tail call void @_ZSt9terminatev() #20
  unreachable

_ZNSt6threadD2Ev.exit:                            ; preds = %if.end
  ret void

terminate.lpad:                                   ; preds = %if.then.i.i, %invoke.cont
  %0 = landingpad { ptr, i32 }
          catch ptr null
  %1 = extractvalue { ptr, i32 } %0, 0
  tail call void @__clang_call_terminate(ptr %1) #20
  unreachable
}